; Function Attrs: null_pointer_is_valid sspstrong uwtable
define internal range(i32 -268435456, 268435456) i32 @dissect_ENBname_PDU(ptr noundef %0, ptr noundef %1, ptr noundef %2, ptr readnone captures(none) %3) #0 {
  %5 = alloca ptr, align 8
  %6 = alloca %struct._asn1_ctx_t, align 8
  call void @llvm.lifetime.start.p0(i64 208, ptr nonnull %6) #8
  call void @asn1_ctx_init(ptr noundef nonnull %6, i32 noundef 1, i1 noundef zeroext true, ptr noundef %1)
  %7 = load i32, ptr @hf_s1ap_ENBname_PDU, align 4
  call void @llvm.lifetime.start.p0(i64 8, ptr nonnull %5) #8
  store ptr null, ptr %5, align 8
  %8 = call i32 @dissect_per_PrintableString(ptr noundef %0, i32 noundef 0, ptr noundef nonnull %6, ptr noundef %2, i32 noundef %7, i32 noundef 1, i32 noundef 150, i1 noundef zeroext true, ptr noundef nonnull %5)
  %9 = load ptr, ptr %5, align 8
  %.not.i = icmp eq ptr %9, null
  br i1 %.not.i, label %dissect_s1ap_ENBname.exit, label %10

10:                                               ; preds = %4
  %11 = call i32 @tvb_reported_length(ptr noundef nonnull %9)
  %12 = load ptr, ptr %5, align 8
  %13 = call zeroext i1 @tvb_ascii_isprint(ptr noundef %12, i32 noundef 0, i32 noundef %11)
  br i1 %13, label %14, label %dissect_s1ap_ENBname.exit

14:                                               ; preds = %10
  %15 = getelementptr inbounds nuw i8, ptr %6, i64 24
  %16 = load ptr, ptr %15, align 8
  %17 = getelementptr inbounds nuw i8, ptr %6, i64 16
  %18 = load ptr, ptr %17, align 8
  %19 = getelementptr inbounds nuw i8, ptr %18, i64 408
  %20 = load ptr, ptr %19, align 8
  %21 = load ptr, ptr %5, align 8
  %22 = call ptr @tvb_format_text(ptr noundef %20, ptr noundef %21, i32 noundef 0, i32 noundef %11)
  call void (ptr, ptr, ...) @proto_item_append_text(ptr noundef %16, ptr noundef nonnull @.str.2094, ptr noundef %22)
  br label %dissect_s1ap_ENBname.exit

dissect_s1ap_ENBname.exit:                        ; preds = %4, %10, %14
  call void @llvm.lifetime.end.p0(i64 8, ptr nonnull %5) #8
  %23 = add i32 %8, 7
  %24 = ashr i32 %23, 3
  call void @llvm.lifetime.end.p0(i64 208, ptr nonnull %6) #8
  ret i32 %24
}